; Function Attrs: nounwind uwtable
define hidden void @_ir_CASE_DEFAULT(ptr nocapture noundef %0, i32 noundef %1) local_unnamed_addr #0 {
  %3 = getelementptr inbounds i8, ptr %0, i64 8
  %4 = load i32, ptr %3, align 8
  %5 = getelementptr inbounds i8, ptr %0, i64 12
  %6 = load i32, ptr %5, align 4
  %.not.i.i.i = icmp slt i32 %4, %6
  %.pre.i.i = load ptr, ptr %0, align 8
  br i1 %.not.i.i.i, label %ir_emit1.exit, label %7

7:                                                ; preds = %2
  %8 = getelementptr inbounds i8, ptr %0, i64 20
  %9 = load i32, ptr %8, align 4
  %10 = icmp slt i32 %6, 4096
  %11 = shl nsw i32 %6, 1
  %12 = icmp ult i32 %6, 8192
  %13 = add nuw nsw i32 %6, 4096
  %spec.select.i.i.i.i = select i1 %12, i32 8192, i32 %13
  %.sink.i.i.i.i = select i1 %10, i32 %11, i32 %spec.select.i.i.i.i
  store i32 %.sink.i.i.i.i, ptr %5, align 4
  %14 = sext i32 %9 to i64
  %15 = sub nsw i64 0, %14
  %16 = getelementptr inbounds %struct._ir_insn, ptr %.pre.i.i, i64 %15
  %17 = add nsw i32 %9, %.sink.i.i.i.i
  %18 = sext i32 %17 to i64
  %19 = shl nsw i64 %18, 4
  %20 = tail call ptr @_erealloc(ptr noundef %16, i64 noundef %19) #24
  %21 = load i32, ptr %8, align 4
  %22 = sext i32 %21 to i64
  %23 = getelementptr inbounds %struct._ir_insn, ptr %20, i64 %22
  store ptr %23, ptr %0, align 8
  br label %ir_emit1.exit

ir_emit1.exit:                                    ; preds = %2, %7
  %24 = phi ptr [ %.pre.i.i, %2 ], [ %23, %7 ]
  %25 = add nsw i32 %4, 1
  store i32 %25, ptr %3, align 8
  %26 = sext i32 %4 to i64
  %27 = getelementptr inbounds %struct._ir_insn, ptr %24, i64 %26
  store i32 95, ptr %27, align 8
  %28 = getelementptr inbounds i8, ptr %27, i64 4
  store i32 %1, ptr %28, align 4
  %29 = getelementptr inbounds i8, ptr %27, i64 8
  store i32 0, ptr %29, align 8
  %30 = getelementptr inbounds i8, ptr %27, i64 12
  store i32 0, ptr %30, align 4
  %31 = getelementptr inbounds i8, ptr %0, i64 248
  store i32 %4, ptr %31, align 8
  ret void
}